; ModuleID = '7/628.c'
source_filename = "7/628.c"
target datalayout = "e-m:e-p270:32:32-p271:32:32-p272:64:64-i64:64-f80:128-n8:16:32:64-S128"
target triple = "x86_64-pc-linux-gnu"

@.str = private unnamed_addr constant [3 x i8] c"%s\00", align 1
@.str.1 = private unnamed_addr constant [4 x i8] c"%s\0A\00", align 1

; Function Attrs: noinline nounwind uwtable
define dso_local i32 @main() #0 {
  %1 = alloca i32, align 4
  %2 = alloca [256 x i8], align 16
  %3 = alloca [100 x i8], align 16
  %4 = alloca [100 x i8], align 16
  %5 = alloca i32, align 4
  %6 = alloca i32, align 4
  %7 = alloca i32, align 4
  %8 = alloca i8, align 1
  store i32 0, i32* %1, align 4
  %9 = bitcast [256 x i8]* %2 to i8*
  call void @llvm.memset.p0i8.i64(i8* align 16 %9, i8 0, i64 256, i1 false)
  %10 = bitcast [100 x i8]* %3 to i8*
  call void @llvm.memset.p0i8.i64(i8* align 16 %10, i8 0, i64 100, i1 false)
  %11 = bitcast [100 x i8]* %4 to i8*
  call void @llvm.memset.p0i8.i64(i8* align 16 %11, i8 0, i64 100, i1 false)
  store i32 0, i32* %5, align 4
  store i32 0, i32* %6, align 4
  store i32 0, i32* %7, align 4
  store i8 0, i8* %8, align 1
  br label %12

12:                                               ; preds = %29, %0
  %13 = load i8, i8* %8, align 1
  %14 = sext i8 %13 to i32
  %15 = icmp ne i32 %14, 10
  br i1 %15, label %16, label %30

16:                                               ; preds = %12
  %17 = call i32 @getchar()
  %18 = trunc i32 %17 to i8
  store i8 %18, i8* %8, align 1
  %19 = load i8, i8* %8, align 1
  %20 = sext i8 %19 to i32
  %21 = icmp ne i32 %20, 10
  br i1 %21, label %22, label %29

22:                                               ; preds = %16
  %23 = load i8, i8* %8, align 1
  %24 = load i32, i32* %5, align 4
  %25 = sext i32 %24 to i64
  %26 = getelementptr inbounds [256 x i8], [256 x i8]* %2, i64 0, i64 %25
  store i8 %23, i8* %26, align 1
  %27 = load i32, i32* %5, align 4
  %28 = add nsw i32 %27, 1
  store i32 %28, i32* %5, align 4
  br label %29

29:                                               ; preds = %22, %16
  br label %12

30:                                               ; preds = %12
  %31 = getelementptr inbounds [100 x i8], [100 x i8]* %3, i64 0, i64 0
  %32 = call i32 (i8*, ...) @__isoc99_scanf(i8* getelementptr inbounds ([3 x i8], [3 x i8]* @.str, i64 0, i64 0), i8* %31)
  %33 = getelementptr inbounds [100 x i8], [100 x i8]* %4, i64 0, i64 0
  %34 = call i32 (i8*, ...) @__isoc99_scanf(i8* getelementptr inbounds ([3 x i8], [3 x i8]* @.str, i64 0, i64 0), i8* %33)
  store i32 0, i32* %5, align 4
  br label %35

35:                                               ; preds = %108, %30
  %36 = load i32, i32* %5, align 4
  %37 = sext i32 %36 to i64
  %38 = getelementptr inbounds [256 x i8], [256 x i8]* %2, i64 0, i64 0
  %39 = call i64 @strlen(i8* %38) #4
  %40 = icmp ult i64 %37, %39
  br i1 %40, label %41, label %111

41:                                               ; preds = %35
  %42 = load i32, i32* %5, align 4
  %43 = sext i32 %42 to i64
  %44 = getelementptr inbounds [256 x i8], [256 x i8]* %2, i64 0, i64 %43
  %45 = load i8, i8* %44, align 1
  %46 = sext i8 %45 to i32
  %47 = getelementptr inbounds [100 x i8], [100 x i8]* %3, i64 0, i64 0
  %48 = load i8, i8* %47, align 16
  %49 = sext i8 %48 to i32
  %50 = icmp eq i32 %46, %49
  br i1 %50, label %51, label %107

51:                                               ; preds = %41
  %52 = load i32, i32* %5, align 4
  store i32 %52, i32* %7, align 4
  store i32 0, i32* %6, align 4
  br label %53

53:                                               ; preds = %73, %51
  %54 = load i32, i32* %6, align 4
  %55 = sext i32 %54 to i64
  %56 = getelementptr inbounds [100 x i8], [100 x i8]* %3, i64 0, i64 0
  %57 = call i64 @strlen(i8* %56) #4
  %58 = icmp ult i64 %55, %57
  br i1 %58, label %59, label %78

59:                                               ; preds = %53
  %60 = load i32, i32* %6, align 4
  %61 = sext i32 %60 to i64
  %62 = getelementptr inbounds [100 x i8], [100 x i8]* %3, i64 0, i64 %61
  %63 = load i8, i8* %62, align 1
  %64 = sext i8 %63 to i32
  %65 = load i32, i32* %7, align 4
  %66 = sext i32 %65 to i64
  %67 = getelementptr inbounds [256 x i8], [256 x i8]* %2, i64 0, i64 %66
  %68 = load i8, i8* %67, align 1
  %69 = sext i8 %68 to i32
  %70 = icmp ne i32 %64, %69
  br i1 %70, label %71, label %72

71:                                               ; preds = %59
  br label %78

72:                                               ; preds = %59
  br label %73

73:                                               ; preds = %72
  %74 = load i32, i32* %6, align 4
  %75 = add nsw i32 %74, 1
  store i32 %75, i32* %6, align 4
  %76 = load i32, i32* %7, align 4
  %77 = add nsw i32 %76, 1
  store i32 %77, i32* %7, align 4
  br label %53

78:                                               ; preds = %71, %53
  %79 = load i32, i32* %6, align 4
  %80 = sext i32 %79 to i64
  %81 = getelementptr inbounds [100 x i8], [100 x i8]* %3, i64 0, i64 0
  %82 = call i64 @strlen(i8* %81) #4
  %83 = icmp eq i64 %80, %82
  br i1 %83, label %84, label %106

84:                                               ; preds = %78
  %85 = load i32, i32* %5, align 4
  store i32 %85, i32* %7, align 4
  store i32 0, i32* %6, align 4
  br label %86

86:                                               ; preds = %100, %84
  %87 = load i32, i32* %6, align 4
  %88 = sext i32 %87 to i64
  %89 = getelementptr inbounds [100 x i8], [100 x i8]* %4, i64 0, i64 0
  %90 = call i64 @strlen(i8* %89) #4
  %91 = icmp ult i64 %88, %90
  br i1 %91, label %92, label %105

92:                                               ; preds = %86
  %93 = load i32, i32* %6, align 4
  %94 = sext i32 %93 to i64
  %95 = getelementptr inbounds [100 x i8], [100 x i8]* %4, i64 0, i64 %94
  %96 = load i8, i8* %95, align 1
  %97 = load i32, i32* %7, align 4
  %98 = sext i32 %97 to i64
  %99 = getelementptr inbounds [256 x i8], [256 x i8]* %2, i64 0, i64 %98
  store i8 %96, i8* %99, align 1
  br label %100

100:                                              ; preds = %92
  %101 = load i32, i32* %6, align 4
  %102 = add nsw i32 %101, 1
  store i32 %102, i32* %6, align 4
  %103 = load i32, i32* %7, align 4
  %104 = add nsw i32 %103, 1
  store i32 %104, i32* %7, align 4
  br label %86

105:                                              ; preds = %86
  br label %111

106:                                              ; preds = %78
  br label %107

107:                                              ; preds = %106, %41
  br label %108

108:                                              ; preds = %107
  %109 = load i32, i32* %5, align 4
  %110 = add nsw i32 %109, 1
  store i32 %110, i32* %5, align 4
  br label %35

111:                                              ; preds = %105, %35
  %112 = getelementptr inbounds [256 x i8], [256 x i8]* %2, i64 0, i64 0
  %113 = call i32 (i8*, ...) @printf(i8* getelementptr inbounds ([4 x i8], [4 x i8]* @.str.1, i64 0, i64 0), i8* %112)
  ret i32 0
}

; Function Attrs: argmemonly nounwind willreturn
declare void @llvm.memset.p0i8.i64(i8* nocapture writeonly, i8, i64, i1 immarg) #1

declare dso_local i32 @getchar() #2

declare dso_local i32 @__isoc99_scanf(i8*, ...) #2

; Function Attrs: nounwind readonly
declare dso_local i64 @strlen(i8*) #3

declare dso_local i32 @printf(i8*, ...) #2


!llvm.module.flags = !{!0}
!llvm.ident = !{!1}

!0 = !{i32 1, !"wchar_size", i32 4}
!1 = !{!"clang version 10.0.0-4ubuntu1 "}
